ccopy_reg
_reconstructor
p0
(cgoogle.oauth2.credentials
Credentials
p1
c__builtin__
object
p2
Ntp3
Rp4
(dp5
S'_quota_project_id'
p6
NsS'_token_uri'
p7
Vhttps://oauth2.googleapis.com/token
p8
sS'_client_secret'
p9
VtFgAYFV07vQt5i0J9lsImjiu
p10
sS'_id_token'
p11
NsS'token'
p12
Vya29.ImDBB9li5sLLzNFDIHrxz9EAOSshUZrDxSJCK87Kw6m5NuW2HvBwMHlutHMSij2FsdN9NnIaXmlCMezFzJ3kJ_qQLu2Sfpu7K603bC11Y5OP1dsWNOSIciGfSXzTQGKqjlQ
p13
sS'_refresh_token'
p14
V1//0c0M5YXyjrPrFCgYIARAAGAwSNwF-L9IrOwM9r5e55lhZi9TZ3ak1rc1dh7VpHM4I2_zrEHGNG75LsjMOcBCGQIZvxAD6Zx25X48
p15
sS'_scopes'
p16
(lp17
S'https://www.googleapis.com/auth/spreadsheets.readonly'
p18
asS'_client_id'
p19
V65975089954-nb7d3oi6cju9043akh21tdg38hs2et7d.apps.googleusercontent.com
p20
sS'expiry'
p21
cdatetime
datetime
p22
(S'\x07\xe4\x03\x07\x0f\x0e5\x01Pb'
p23
tp24
Rp25
sb.